target datalayout = "e-m:e-p270:32:32-p271:32:32-p272:64:64-i64:64-i128:128-f80:128-n8:16:32:64-S128"
target triple = "x86_64-unknown-linux-gnu"

%"class.std::__shared_count" = type { ptr }
%"class.std::shared_ptr.72" = type { %"class.std::__shared_ptr.73" }
%"class.std::__shared_ptr.73" = type { ptr, %"class.std::__shared_count" }
%"class.facebook::velox::exec::DecodedArgs" = type { %"class.std::vector.87" }
%"class.std::vector.87" = type { %"struct.std::_Vector_base.88" }
%"struct.std::_Vector_base.88" = type { %"struct.std::_Vector_base<facebook::velox::exec::LocalDecodedVector, std::allocator<facebook::velox::exec::LocalDecodedVector>>::_Vector_impl" }
%"struct.std::_Vector_base<facebook::velox::exec::LocalDecodedVector, std::allocator<facebook::velox::exec::LocalDecodedVector>>::_Vector_impl" = type { %"struct.std::_Vector_base<facebook::velox::exec::LocalDecodedVector, std::allocator<facebook::velox::exec::LocalDecodedVector>>::_Vector_impl_data" }
%"struct.std::_Vector_base<facebook::velox::exec::LocalDecodedVector, std::allocator<facebook::velox::exec::LocalDecodedVector>>::_Vector_impl_data" = type { ptr, ptr, ptr }
%"class.std::shared_ptr.83" = type { %"class.std::__shared_ptr.84" }
%"class.std::__shared_ptr.84" = type { ptr, %"class.std::__shared_count" }
%"class.boost::intrusive_ptr" = type { ptr }
%class.anon.122 = type { ptr, ptr, ptr, ptr, ptr, ptr, ptr }
%"class.std::vector.55" = type { %"struct.std::_Vector_base.56" }
%"struct.std::_Vector_base.56" = type { %"struct.std::_Vector_base<unsigned long, std::allocator<unsigned long>>::_Vector_impl" }
%"struct.std::_Vector_base<unsigned long, std::allocator<unsigned long>>::_Vector_impl" = type { %"struct.std::_Vector_base<unsigned long, std::allocator<unsigned long>>::_Vector_impl_data" }
%"struct.std::_Vector_base<unsigned long, std::allocator<unsigned long>>::_Vector_impl_data" = type { ptr, ptr, ptr }
%"class.std::optional.75" = type { %"struct.std::_Optional_base.76" }
%"struct.std::_Optional_base.76" = type { %"struct.std::_Optional_payload.78" }
%"struct.std::_Optional_payload.78" = type { %"struct.std::_Optional_payload_base.base.80", [3 x i8] }
%"struct.std::_Optional_payload_base.base.80" = type <{ %"union.std::_Optional_payload_base<int>::_Storage", i8 }>
%"union.std::_Optional_payload_base<int>::_Storage" = type { i32 }
%"class.facebook::velox::DecodedVector" = type { i32, ptr, ptr, ptr, %"class.std::optional.104", ptr, i8, i8, i8, i8, i8, i32, %"class.std::vector.112", %"class.std::vector.55" }
%"class.std::optional.104" = type { %"struct.std::_Optional_base.105" }
%"struct.std::_Optional_base.105" = type { %"struct.std::_Optional_payload.107" }
%"struct.std::_Optional_payload.107" = type { %"struct.std::_Optional_payload_base.base.109", [7 x i8] }
%"struct.std::_Optional_payload_base.base.109" = type <{ %"union.std::_Optional_payload_base<const unsigned long *>::_Storage", i8 }>
%"union.std::_Optional_payload_base<const unsigned long *>::_Storage" = type { ptr }
%"class.std::vector.112" = type { %"struct.std::_Vector_base.113" }
%"struct.std::_Vector_base.113" = type { %"struct.std::_Vector_base<int, std::allocator<int>>::_Vector_impl" }
%"struct.std::_Vector_base<int, std::allocator<int>>::_Vector_impl" = type { %"struct.std::_Vector_base<int, std::allocator<int>>::_Vector_impl_data" }
%"struct.std::_Vector_base<int, std::allocator<int>>::_Vector_impl_data" = type { ptr, ptr, ptr }
%"struct.facebook::velox::ArrayVectorBase" = type { %"class.facebook::velox::BaseVector.base", %"class.boost::intrusive_ptr", ptr, %"class.boost::intrusive_ptr", ptr }
%"class.facebook::velox::BaseVector.base" = type <{ ptr, %"class.std::shared_ptr.72", i8, [3 x i8], i32, %"class.boost::intrusive_ptr", ptr, ptr, i32, %"class.std::optional.75", %"class.std::optional.75", %"class.std::optional.75", %"class.std::optional.75", i32, i8, i8, i8 }>
%"class.facebook::velox::MapVector" = type <{ %"struct.facebook::velox::ArrayVectorBase", %"class.std::shared_ptr.83", %"class.std::shared_ptr.83", i8, [7 x i8] }>
%"class.facebook::velox::exec::LocalDecodedVector" = type { %"class.std::reference_wrapper", %"class.std::unique_ptr.129" }
%"class.std::reference_wrapper" = type { ptr }
%"class.std::unique_ptr.129" = type { %"struct.std::__uniq_ptr_data.130" }
%"struct.std::__uniq_ptr_data.130" = type { %"class.std::__uniq_ptr_impl.131" }
%"class.std::__uniq_ptr_impl.131" = type { %"class.std::tuple.132" }
%"class.std::tuple.132" = type { %"struct.std::_Tuple_impl.133" }
%"struct.std::_Tuple_impl.133" = type { %"struct.std::_Head_base.136" }
%"struct.std::_Head_base.136" = type { ptr }

@_ZTIN8facebook5velox10BaseVectorE = external constant ptr
@_ZTIN8facebook5velox9MapVectorE = external constant ptr

; Function Attrs: mustprogress nounwind uwtable
define linkonce_odr noundef ptr @_ZNKSt19__shared_ptr_accessIN8facebook5velox10BaseVectorELN9__gnu_cxx12_Lock_policyE2ELb0ELb0EE6_M_getEv(ptr noundef nonnull align 1 dereferenceable(1) %this) #2 comdat align 2 {
entry:
  %this.addr = alloca ptr, align 8
  store ptr %this, ptr %this.addr, align 8
  %this1 = load ptr, ptr %this.addr, align 8
  %call = call noundef ptr @_ZNKSt12__shared_ptrIN8facebook5velox10BaseVectorELN9__gnu_cxx12_Lock_policyE2EE3getEv(ptr noundef nonnull align 8 dereferenceable(16) %this1) #15
  ret ptr %call
}

; Function Attrs: mustprogress nounwind uwtable
define linkonce_odr noundef nonnull align 8 dereferenceable(16) ptr @_ZNKSt6vectorIN8facebook5velox4exec18LocalDecodedVectorESaIS3_EEixEm(ptr noundef nonnull align 8 dereferenceable(24) %this, i64 noundef %__n) #2 comdat align 2 {
entry:
  %this.addr = alloca ptr, align 8
  %__n.addr = alloca i64, align 8
  store ptr %this, ptr %this.addr, align 8
  store i64 %__n, ptr %__n.addr, align 8
  %this1 = load ptr, ptr %this.addr, align 8
  %_M_impl = getelementptr inbounds %"struct.std::_Vector_base.88", ptr %this1, i32 0, i32 0
  %_M_start = getelementptr inbounds %"struct.std::_Vector_base<facebook::velox::exec::LocalDecodedVector, std::allocator<facebook::velox::exec::LocalDecodedVector>>::_Vector_impl_data", ptr %_M_impl, i32 0, i32 0
  %0 = load ptr, ptr %_M_start, align 8
  %1 = load i64, ptr %__n.addr, align 8
  %add.ptr = getelementptr inbounds %"class.facebook::velox::exec::LocalDecodedVector", ptr %0, i64 %1
  ret ptr %add.ptr
}

; Function Attrs: mustprogress nounwind uwtable
define linkonce_odr noundef nonnull align 8 dereferenceable(16) ptr @_ZNK8facebook5velox9MapVector9mapValuesEv(ptr noundef nonnull align 8 dereferenceable(169) %this) #2 comdat align 2 {
entry:
  %this.addr = alloca ptr, align 8
  store ptr %this, ptr %this.addr, align 8
  %this1 = load ptr, ptr %this.addr, align 8
  %values_ = getelementptr inbounds %"class.facebook::velox::MapVector", ptr %this1, i32 0, i32 2
  ret ptr %values_
}

; Function Attrs: mustprogress nounwind uwtable
define linkonce_odr noundef ptr @_ZNKSt12__shared_ptrIN8facebook5velox10BaseVectorELN9__gnu_cxx12_Lock_policyE2EE3getEv(ptr noundef nonnull align 8 dereferenceable(16) %this) #2 comdat align 2 {
entry:
  %this.addr = alloca ptr, align 8
  store ptr %this, ptr %this.addr, align 8
  %this1 = load ptr, ptr %this.addr, align 8
  %_M_ptr = getelementptr inbounds %"class.std::__shared_ptr.84", ptr %this1, i32 0, i32 0
  %0 = load ptr, ptr %_M_ptr, align 8
  ret ptr %0
}

; Function Attrs: mustprogress nounwind uwtable
define linkonce_odr noundef nonnull align 8 dereferenceable(16) ptr @_ZNK8facebook5velox9MapVector7mapKeysEv(ptr noundef nonnull align 8 dereferenceable(169) %this) #2 comdat align 2 {
entry:
  %this.addr = alloca ptr, align 8
  store ptr %this, ptr %this.addr, align 8
  %this1 = load ptr, ptr %this.addr, align 8
  %keys_ = getelementptr inbounds %"class.facebook::velox::MapVector", ptr %this1, i32 0, i32 1
  ret ptr %keys_
}

; Function Attrs: mustprogress nounwind uwtable
define linkonce_odr noundef ptr @_ZNKSt19__shared_ptr_accessIN8facebook5velox10BaseVectorELN9__gnu_cxx12_Lock_policyE2ELb0ELb0EEptEv(ptr noundef nonnull align 1 dereferenceable(1) %this) #2 comdat align 2 {
entry:
  %this.addr = alloca ptr, align 8
  store ptr %this, ptr %this.addr, align 8
  %this1 = load ptr, ptr %this.addr, align 8
  %call = call noundef ptr @_ZNKSt19__shared_ptr_accessIN8facebook5velox10BaseVectorELN9__gnu_cxx12_Lock_policyE2ELb0ELb0EE6_M_getEv(ptr noundef nonnull align 1 dereferenceable(1) %this1) #15
  ret ptr %call
}

; Function Attrs: mustprogress nounwind uwtable
define linkonce_odr noundef i32 @_ZNK8facebook5velox15ArrayVectorBase6sizeAtEi(ptr noundef nonnull align 8 dereferenceable(136) %this, i32 noundef %index) #2 comdat align 2 {
entry:
  %this.addr = alloca ptr, align 8
  %index.addr = alloca i32, align 4
  store ptr %this, ptr %this.addr, align 8
  store i32 %index, ptr %index.addr, align 4
  %this1 = load ptr, ptr %this.addr, align 8
  %rawSizes_ = getelementptr inbounds %"struct.facebook::velox::ArrayVectorBase", ptr %this1, i32 0, i32 4
  %0 = load ptr, ptr %rawSizes_, align 8
  %1 = load i32, ptr %index.addr, align 4
  %idxprom = sext i32 %1 to i64
  %arrayidx = getelementptr inbounds i32, ptr %0, i64 %idxprom
  %2 = load i32, ptr %arrayidx, align 4
  ret i32 %2
}

; Function Attrs: mustprogress nounwind uwtable
define linkonce_odr noundef i32 @_ZNK8facebook5velox15ArrayVectorBase8offsetAtEi(ptr noundef nonnull align 8 dereferenceable(136) %this, i32 noundef %index) #2 comdat align 2 {
entry:
  %this.addr = alloca ptr, align 8
  %index.addr = alloca i32, align 4
  store ptr %this, ptr %this.addr, align 8
  store i32 %index, ptr %index.addr, align 4
  %this1 = load ptr, ptr %this.addr, align 8
  %rawOffsets_ = getelementptr inbounds %"struct.facebook::velox::ArrayVectorBase", ptr %this1, i32 0, i32 2
  %0 = load ptr, ptr %rawOffsets_, align 8
  %1 = load i32, ptr %index.addr, align 4
  %idxprom = sext i32 %1 to i64
  %arrayidx = getelementptr inbounds i32, ptr %0, i64 %idxprom
  %2 = load i32, ptr %arrayidx, align 4
  ret i32 %2
}

; Function Attrs: mustprogress nounwind uwtable
define linkonce_odr noundef i32 @_ZNK8facebook5velox13DecodedVector5indexEi(ptr noundef nonnull align 8 dereferenceable(120) %this, i32 noundef %idx) #2 comdat align 2 {
entry:
  %retval = alloca i32, align 4
  %this.addr = alloca ptr, align 8
  %idx.addr = alloca i32, align 4
  store ptr %this, ptr %this.addr, align 8
  store i32 %idx, ptr %idx.addr, align 4
  %this1 = load ptr, ptr %this.addr, align 8
  %isIdentityMapping_ = getelementptr inbounds %"class.facebook::velox::DecodedVector", ptr %this1, i32 0, i32 8
  %0 = load i8, ptr %isIdentityMapping_, align 2
  %tobool = trunc i8 %0 to i1
  br i1 %tobool, label %if.then, label %if.end

if.then:                                          ; preds = %entry
  %1 = load i32, ptr %idx.addr, align 4
  store i32 %1, ptr %retval, align 4
  br label %return

if.end:                                           ; preds = %entry
  %isConstantMapping_ = getelementptr inbounds %"class.facebook::velox::DecodedVector", ptr %this1, i32 0, i32 9
  %2 = load i8, ptr %isConstantMapping_, align 1
  %tobool2 = trunc i8 %2 to i1
  br i1 %tobool2, label %if.then3, label %if.end4

if.then3:                                         ; preds = %if.end
  %constantIndex_ = getelementptr inbounds %"class.facebook::velox::DecodedVector", ptr %this1, i32 0, i32 11
  %3 = load i32, ptr %constantIndex_, align 8
  store i32 %3, ptr %retval, align 4
  br label %return

if.end4:                                          ; preds = %if.end
  %indices_ = getelementptr inbounds %"class.facebook::velox::DecodedVector", ptr %this1, i32 0, i32 1
  %4 = load ptr, ptr %indices_, align 8
  %5 = load i32, ptr %idx.addr, align 4
  %idxprom = sext i32 %5 to i64
  %arrayidx = getelementptr inbounds i32, ptr %4, i64 %idxprom
  %6 = load i32, ptr %arrayidx, align 4
  store i32 %6, ptr %retval, align 4
  br label %return

return:                                           ; preds = %if.end4, %if.then3, %if.then
  %7 = load i32, ptr %retval, align 4
  ret i32 %7
}

; Function Attrs: mustprogress nounwind uwtable
define linkonce_odr noundef ptr @_ZNK8facebook5velox10BaseVector2asINS0_9MapVectorEEEPKT_v(ptr noundef nonnull align 8 dereferenceable(99) %this) #2 comdat align 2 {
entry:
  %this.addr = alloca ptr, align 8
  store ptr %this, ptr %this.addr, align 8
  %this1 = load ptr, ptr %this.addr, align 8
  %0 = icmp eq ptr %this1, null
  br i1 %0, label %dynamic_cast.null, label %dynamic_cast.notnull

dynamic_cast.notnull:                             ; preds = %entry
  %1 = call ptr @__dynamic_cast(ptr %this1, ptr @_ZTIN8facebook5velox10BaseVectorE, ptr @_ZTIN8facebook5velox9MapVectorE, i64 0) #15
  br label %dynamic_cast.end

dynamic_cast.null:                                ; preds = %entry
  br label %dynamic_cast.end

dynamic_cast.end:                                 ; preds = %dynamic_cast.null, %dynamic_cast.notnull
  %2 = phi ptr [ %1, %dynamic_cast.notnull ], [ null, %dynamic_cast.null ]
  ret ptr %2
}

; Function Attrs: mustprogress nounwind uwtable
define linkonce_odr noundef ptr @_ZNK8facebook5velox13DecodedVector4baseEv(ptr noundef nonnull align 8 dereferenceable(120) %this) #2 comdat align 2 {
entry:
  %this.addr = alloca ptr, align 8
  store ptr %this, ptr %this.addr, align 8
  %this1 = load ptr, ptr %this.addr, align 8
  %baseVector_ = getelementptr inbounds %"class.facebook::velox::DecodedVector", ptr %this1, i32 0, i32 5
  %0 = load ptr, ptr %baseVector_, align 8
  ret ptr %0
}

; Function Attrs: mustprogress uwtable
define linkonce_odr noundef ptr @_ZNK8facebook5velox4exec11DecodedArgs2atEi(ptr noundef nonnull align 8 dereferenceable(24) %this, i32 noundef %i) #0 comdat align 2 {
entry:
  %this.addr = alloca ptr, align 8
  %i.addr = alloca i32, align 4
  store ptr %this, ptr %this.addr, align 8
  store i32 %i, ptr %i.addr, align 4
  %this1 = load ptr, ptr %this.addr, align 8
  %holders_ = getelementptr inbounds %"class.facebook::velox::exec::DecodedArgs", ptr %this1, i32 0, i32 0
  %0 = load i32, ptr %i.addr, align 4
  %conv = sext i32 %0 to i64
  %call = call noundef nonnull align 8 dereferenceable(16) ptr @_ZNKSt6vectorIN8facebook5velox4exec18LocalDecodedVectorESaIS3_EEixEm(ptr noundef nonnull align 8 dereferenceable(24) %holders_, i64 noundef %conv) #15
  %call2 = call noundef ptr @_ZN8facebook5velox4exec18LocalDecodedVector3getEv(ptr noundef nonnull align 8 dereferenceable(16) %call)
  ret ptr %call2
}

; Function Attrs: mustprogress uwtable
define internal void @_ZZNK8facebook5velox9functions12_GLOBAL__N_117MapConcatFunctionILb0EE5applyERKNS0_17SelectivityVectorERSt6vectorISt10shared_ptrINS0_10BaseVectorEESaISB_EERKS9_IKNS0_4TypeEERNS0_4exec7EvalCtxERSB_ENKUliE0_clEi(ptr noundef nonnull align 8 dereferenceable(56) %this, i32 noundef %row) #0 align 2 {
entry:
  %this.addr = alloca ptr, align 8
  %row.addr = alloca i32, align 4
  %i = alloca i32, align 4
  %decodedArg = alloca ptr, align 8
  %inputMap = alloca ptr, align 8
  %index = alloca i32, align 4
  %inputOffset = alloca i32, align 4
  %inputSize = alloca i32, align 4
  store ptr %this, ptr %this.addr, align 8
  store i32 %row, ptr %row.addr, align 4
  %this1 = load ptr, ptr %this.addr, align 8
  %0 = getelementptr inbounds %class.anon.122, ptr %this1, i32 0, i32 1
  %1 = load ptr, ptr %0, align 8
  %2 = load i32, ptr %1, align 4
  %3 = getelementptr inbounds %class.anon.122, ptr %this1, i32 0, i32 0
  %4 = load ptr, ptr %3, align 8
  %5 = load ptr, ptr %4, align 8
  %6 = load i32, ptr %row.addr, align 4
  %idxprom = sext i32 %6 to i64
  %arrayidx = getelementptr inbounds i32, ptr %5, i64 %idxprom
  store i32 %2, ptr %arrayidx, align 4
  store i32 0, ptr %i, align 4
  br label %for.cond

for.cond:                                         ; preds = %for.inc, %entry
  %7 = load i32, ptr %i, align 4
  %conv = sext i32 %7 to i64
  %8 = getelementptr inbounds %class.anon.122, ptr %this1, i32 0, i32 2
  %9 = load ptr, ptr %8, align 8
  %10 = load i64, ptr %9, align 8
  %cmp = icmp ult i64 %conv, %10
  br i1 %cmp, label %for.body, label %for.end

for.body:                                         ; preds = %for.cond
  %11 = getelementptr inbounds %class.anon.122, ptr %this1, i32 0, i32 3
  %12 = load ptr, ptr %11, align 8
  %13 = load i32, ptr %i, align 4
  %call = call noundef ptr @_ZNK8facebook5velox4exec11DecodedArgs2atEi(ptr noundef nonnull align 8 dereferenceable(24) %12, i32 noundef %13)
  store ptr %call, ptr %decodedArg, align 8
  %14 = load ptr, ptr %decodedArg, align 8
  %call2 = call noundef ptr @_ZNK8facebook5velox13DecodedVector4baseEv(ptr noundef nonnull align 8 dereferenceable(120) %14)
  %call3 = call noundef ptr @_ZNK8facebook5velox10BaseVector2asINS0_9MapVectorEEEPKT_v(ptr noundef nonnull align 8 dereferenceable(99) %call2)
  store ptr %call3, ptr %inputMap, align 8
  %15 = load ptr, ptr %decodedArg, align 8
  %16 = load i32, ptr %row.addr, align 4
  %call4 = call noundef i32 @_ZNK8facebook5velox13DecodedVector5indexEi(ptr noundef nonnull align 8 dereferenceable(120) %15, i32 noundef %16)
  store i32 %call4, ptr %index, align 4
  %17 = load ptr, ptr %inputMap, align 8
  %18 = load i32, ptr %index, align 4
  %call5 = call noundef i32 @_ZNK8facebook5velox15ArrayVectorBase8offsetAtEi(ptr noundef nonnull align 8 dereferenceable(136) %17, i32 noundef %18)
  store i32 %call5, ptr %inputOffset, align 4
  %19 = load ptr, ptr %inputMap, align 8
  %20 = load i32, ptr %index, align 4
  %call6 = call noundef i32 @_ZNK8facebook5velox15ArrayVectorBase6sizeAtEi(ptr noundef nonnull align 8 dereferenceable(136) %19, i32 noundef %20)
  store i32 %call6, ptr %inputSize, align 4
  %21 = getelementptr inbounds %class.anon.122, ptr %this1, i32 0, i32 4
  %22 = load ptr, ptr %21, align 8
  %call7 = call noundef ptr @_ZNKSt19__shared_ptr_accessIN8facebook5velox10BaseVectorELN9__gnu_cxx12_Lock_policyE2ELb0ELb0EEptEv(ptr noundef nonnull align 1 dereferenceable(1) %22) #15
  %23 = load ptr, ptr %inputMap, align 8
  %call8 = call noundef nonnull align 8 dereferenceable(16) ptr @_ZNK8facebook5velox9MapVector7mapKeysEv(ptr noundef nonnull align 8 dereferenceable(169) %23)
  %call9 = call noundef ptr @_ZNKSt12__shared_ptrIN8facebook5velox10BaseVectorELN9__gnu_cxx12_Lock_policyE2EE3getEv(ptr noundef nonnull align 8 dereferenceable(16) %call8) #15
  %24 = getelementptr inbounds %class.anon.122, ptr %this1, i32 0, i32 1
  %25 = load ptr, ptr %24, align 8
  %26 = load i32, ptr %25, align 4
  %27 = load i32, ptr %inputOffset, align 4
  %28 = load i32, ptr %inputSize, align 4
  %vtable = load ptr, ptr %call7, align 8
  %vfn = getelementptr inbounds ptr, ptr %vtable, i64 26
  %29 = load ptr, ptr %vfn, align 8
  call void %29(ptr noundef nonnull align 8 dereferenceable(99) %call7, ptr noundef %call9, i32 noundef %26, i32 noundef %27, i32 noundef %28)
  %30 = getelementptr inbounds %class.anon.122, ptr %this1, i32 0, i32 5
  %31 = load ptr, ptr %30, align 8
  %call10 = call noundef ptr @_ZNKSt19__shared_ptr_accessIN8facebook5velox10BaseVectorELN9__gnu_cxx12_Lock_policyE2ELb0ELb0EEptEv(ptr noundef nonnull align 1 dereferenceable(1) %31) #15
  %32 = load ptr, ptr %inputMap, align 8
  %call11 = call noundef nonnull align 8 dereferenceable(16) ptr @_ZNK8facebook5velox9MapVector9mapValuesEv(ptr noundef nonnull align 8 dereferenceable(169) %32)
  %call12 = call noundef ptr @_ZNKSt12__shared_ptrIN8facebook5velox10BaseVectorELN9__gnu_cxx12_Lock_policyE2EE3getEv(ptr noundef nonnull align 8 dereferenceable(16) %call11) #15
  %33 = getelementptr inbounds %class.anon.122, ptr %this1, i32 0, i32 1
  %34 = load ptr, ptr %33, align 8
  %35 = load i32, ptr %34, align 4
  %36 = load i32, ptr %inputOffset, align 4
  %37 = load i32, ptr %inputSize, align 4
  %vtable13 = load ptr, ptr %call10, align 8
  %vfn14 = getelementptr inbounds ptr, ptr %vtable13, i64 26
  %38 = load ptr, ptr %vfn14, align 8
  call void %38(ptr noundef nonnull align 8 dereferenceable(99) %call10, ptr noundef %call12, i32 noundef %35, i32 noundef %36, i32 noundef %37)
  %39 = load i32, ptr %inputSize, align 4
  %40 = getelementptr inbounds %class.anon.122, ptr %this1, i32 0, i32 1
  %41 = load ptr, ptr %40, align 8
  %42 = load i32, ptr %41, align 4
  %add = add nsw i32 %42, %39
  store i32 %add, ptr %41, align 4
  br label %for.inc

for.inc:                                          ; preds = %for.body
  %43 = load i32, ptr %i, align 4
  %inc = add nsw i32 %43, 1
  store i32 %inc, ptr %i, align 4
  br label %for.cond, !llvm.loop !32

for.end:                                          ; preds = %for.cond
  %44 = getelementptr inbounds %class.anon.122, ptr %this1, i32 0, i32 1
  %45 = load ptr, ptr %44, align 8
  %46 = load i32, ptr %45, align 4
  %47 = getelementptr inbounds %class.anon.122, ptr %this1, i32 0, i32 0
  %48 = load ptr, ptr %47, align 8
  %49 = load ptr, ptr %48, align 8
  %50 = load i32, ptr %row.addr, align 4
  %idxprom15 = sext i32 %50 to i64
  %arrayidx16 = getelementptr inbounds i32, ptr %49, i64 %idxprom15
  %51 = load i32, ptr %arrayidx16, align 4
  %sub = sub nsw i32 %46, %51
  %52 = getelementptr inbounds %class.anon.122, ptr %this1, i32 0, i32 6
  %53 = load ptr, ptr %52, align 8
  %54 = load ptr, ptr %53, align 8
  %55 = load i32, ptr %row.addr, align 4
  %idxprom17 = sext i32 %55 to i64
  %arrayidx18 = getelementptr inbounds i32, ptr %54, i64 %idxprom17
  store i32 %sub, ptr %arrayidx18, align 4
  ret void
}