; Function Attrs: mustprogress uwtable
define internal fastcc void @_ZZNK8facebook5velox9functions12_GLOBAL__N_117MapConcatFunctionILb0EE5applyERKNS0_17SelectivityVectorERSt6vectorISt10shared_ptrINS0_10BaseVectorEESaISB_EERKS9_IKNS0_4TypeEERNS0_4exec7EvalCtxERSB_ENKUliE0_clEi(ptr nocapture noundef nonnull readonly align 8 dereferenceable(56) %this, i32 noundef %row) unnamed_addr #0 align 2 {
entry:
  %0 = getelementptr inbounds i8, ptr %this, i64 8
  %1 = load ptr, ptr %0, align 8
  %2 = load i32, ptr %1, align 4
  %3 = load ptr, ptr %this, align 8
  %4 = load ptr, ptr %3, align 8
  %idxprom = sext i32 %row to i64
  %arrayidx = getelementptr inbounds i32, ptr %4, i64 %idxprom
  store i32 %2, ptr %arrayidx, align 4
  %5 = getelementptr inbounds i8, ptr %this, i64 16
  %6 = load ptr, ptr %5, align 8
  %7 = load i64, ptr %6, align 8
  %cmp18.not = icmp eq i64 %7, 0
  br i1 %cmp18.not, label %for.end, label %for.body.lr.ph

for.body.lr.ph:                                   ; preds = %entry
  %8 = getelementptr inbounds i8, ptr %this, i64 24
  %9 = getelementptr inbounds i8, ptr %this, i64 32
  %10 = getelementptr inbounds i8, ptr %this, i64 40
  br label %for.body

for.body:                                         ; preds = %for.body.lr.ph, %_ZNK8facebook5velox13DecodedVector5indexEi.exit
  %indvars.iv = phi i64 [ 0, %for.body.lr.ph ], [ %indvars.iv.next, %_ZNK8facebook5velox13DecodedVector5indexEi.exit ]
  %11 = load ptr, ptr %8, align 8
  %12 = load ptr, ptr %11, align 8
  %add.ptr.i.i = getelementptr inbounds %"class.facebook::velox::exec::LocalDecodedVector", ptr %12, i64 %indvars.iv
  %call2.i = tail call noundef ptr @_ZN8facebook5velox4exec18LocalDecodedVector3getEv(ptr noundef nonnull align 8 dereferenceable(16) %add.ptr.i.i)
  %baseVector_.i = getelementptr inbounds i8, ptr %call2.i, i64 48
  %13 = load ptr, ptr %baseVector_.i, align 8
  %14 = tail call noundef ptr @__dynamic_cast(ptr nonnull %13, ptr nonnull @_ZTIN8facebook5velox10BaseVectorE, ptr nonnull @_ZTIN8facebook5velox9MapVectorE, i64 0) #21
  %isIdentityMapping_.i = getelementptr inbounds i8, ptr %call2.i, i64 58
  %15 = load i8, ptr %isIdentityMapping_.i, align 2
  %16 = and i8 %15, 1
  %tobool.not.i = icmp eq i8 %16, 0
  br i1 %tobool.not.i, label %if.end.i, label %_ZNK8facebook5velox13DecodedVector5indexEi.exit

if.end.i:                                         ; preds = %for.body
  %isConstantMapping_.i = getelementptr inbounds i8, ptr %call2.i, i64 59
  %17 = load i8, ptr %isConstantMapping_.i, align 1
  %18 = and i8 %17, 1
  %tobool2.not.i = icmp eq i8 %18, 0
  br i1 %tobool2.not.i, label %if.end4.i, label %if.then3.i

if.then3.i:                                       ; preds = %if.end.i
  %constantIndex_.i = getelementptr inbounds i8, ptr %call2.i, i64 64
  %19 = load i32, ptr %constantIndex_.i, align 8
  br label %_ZNK8facebook5velox13DecodedVector5indexEi.exit

if.end4.i:                                        ; preds = %if.end.i
  %indices_.i = getelementptr inbounds i8, ptr %call2.i, i64 8
  %20 = load ptr, ptr %indices_.i, align 8
  %arrayidx.i = getelementptr inbounds i32, ptr %20, i64 %idxprom
  %21 = load i32, ptr %arrayidx.i, align 4
  br label %_ZNK8facebook5velox13DecodedVector5indexEi.exit

_ZNK8facebook5velox13DecodedVector5indexEi.exit:  ; preds = %for.body, %if.then3.i, %if.end4.i
  %retval.0.i = phi i32 [ %19, %if.then3.i ], [ %21, %if.end4.i ], [ %row, %for.body ]
  %rawOffsets_.i = getelementptr inbounds i8, ptr %14, i64 112
  %22 = load ptr, ptr %rawOffsets_.i, align 8
  %idxprom.i14 = sext i32 %retval.0.i to i64
  %arrayidx.i15 = getelementptr inbounds i32, ptr %22, i64 %idxprom.i14
  %23 = load i32, ptr %arrayidx.i15, align 4
  %rawSizes_.i = getelementptr inbounds i8, ptr %14, i64 128
  %24 = load ptr, ptr %rawSizes_.i, align 8
  %arrayidx.i17 = getelementptr inbounds i32, ptr %24, i64 %idxprom.i14
  %25 = load i32, ptr %arrayidx.i17, align 4
  %26 = load ptr, ptr %9, align 8
  %27 = load ptr, ptr %26, align 8
  %keys_.i = getelementptr inbounds i8, ptr %14, i64 136
  %28 = load ptr, ptr %keys_.i, align 8
  %29 = load ptr, ptr %0, align 8
  %30 = load i32, ptr %29, align 4
  %vtable = load ptr, ptr %27, align 8
  %vfn = getelementptr inbounds i8, ptr %vtable, i64 208
  %31 = load ptr, ptr %vfn, align 8
  tail call void %31(ptr noundef nonnull align 8 dereferenceable(99) %27, ptr noundef %28, i32 noundef %30, i32 noundef %23, i32 noundef %25)
  %32 = load ptr, ptr %10, align 8
  %33 = load ptr, ptr %32, align 8
  %values_.i = getelementptr inbounds i8, ptr %14, i64 152
  %34 = load ptr, ptr %values_.i, align 8
  %35 = load ptr, ptr %0, align 8
  %36 = load i32, ptr %35, align 4
  %vtable13 = load ptr, ptr %33, align 8
  %vfn14 = getelementptr inbounds i8, ptr %vtable13, i64 208
  %37 = load ptr, ptr %vfn14, align 8
  tail call void %37(ptr noundef nonnull align 8 dereferenceable(99) %33, ptr noundef %34, i32 noundef %36, i32 noundef %23, i32 noundef %25)
  %38 = load ptr, ptr %0, align 8
  %39 = load i32, ptr %38, align 4
  %add = add nsw i32 %39, %25
  store i32 %add, ptr %38, align 4
  %indvars.iv.next = add nuw i64 %indvars.iv, 1
  %40 = load ptr, ptr %5, align 8
  %41 = load i64, ptr %40, align 8
  %cmp = icmp ugt i64 %41, %indvars.iv.next
  br i1 %cmp, label %for.body, label %for.end, !llvm.loop !72

for.end:                                          ; preds = %_ZNK8facebook5velox13DecodedVector5indexEi.exit, %entry
  %42 = load ptr, ptr %0, align 8
  %43 = load i32, ptr %42, align 4
  %44 = load ptr, ptr %this, align 8
  %45 = load ptr, ptr %44, align 8
  %arrayidx16 = getelementptr inbounds i32, ptr %45, i64 %idxprom
  %46 = load i32, ptr %arrayidx16, align 4
  %sub = sub nsw i32 %43, %46
  %47 = getelementptr inbounds i8, ptr %this, i64 48
  %48 = load ptr, ptr %47, align 8
  %49 = load ptr, ptr %48, align 8
  %arrayidx18 = getelementptr inbounds i32, ptr %49, i64 %idxprom
  store i32 %sub, ptr %arrayidx18, align 4
  ret void
}